target datalayout = "e-m:e-p270:32:32-p271:32:32-p272:64:64-i64:64-i128:128-f80:128-n8:16:32:64-S128"
target triple = "x86_64-pc-linux-gnu"

%"struct.base::ThreadLocalStorage::StaticSlot" = type { i32, i32 }

@_ZN4base11trace_event12_GLOBAL__N_123g_tls_alloc_ctx_trackerE = internal global %"struct.base::ThreadLocalStorage::StaticSlot" zeroinitializer, align 4
@_ZN4base11trace_event24AllocationContextTrackerC1Ev = unnamed_addr alias void (ptr), ptr @_ZN4base11trace_event24AllocationContextTrackerC2Ev

; Function Attrs: mustprogress uwtable
define noundef ptr @_ZN4base11trace_event24AllocationContextTracker27GetInstanceForCurrentThreadEv() #0 align 2 personality ptr @__gxx_personality_v0 {
  %1 = alloca ptr, align 8
  %2 = alloca ptr, align 8
  %3 = alloca i32, align 4
  %4 = alloca ptr, align 8
  %5 = alloca i32, align 4
  call void @llvm.lifetime.start.p0(i64 8, ptr %2) #14
  %6 = call noundef ptr @_ZNK4base18ThreadLocalStorage10StaticSlot3GetEv(ptr noundef nonnull align 4 dereferenceable(8) @_ZN4base11trace_event12_GLOBAL__N_123g_tls_alloc_ctx_trackerE)
  store ptr %6, ptr %2, align 8, !tbaa !3
  %7 = load ptr, ptr %2, align 8, !tbaa !3
  %8 = icmp eq ptr %7, inttoptr (i64 -1 to ptr)
  br i1 %8, label %9, label %10

9:                                                ; preds = %0
  store ptr null, ptr %1, align 8
  store i32 1, ptr %3, align 4
  br label %23

10:                                               ; preds = %0
  %11 = load ptr, ptr %2, align 8, !tbaa !3
  %12 = icmp ne ptr %11, null
  br i1 %12, label %21, label %13

13:                                               ; preds = %10
  call void @_ZN4base18ThreadLocalStorage10StaticSlot3SetEPv(ptr noundef nonnull align 4 dereferenceable(8) @_ZN4base11trace_event12_GLOBAL__N_123g_tls_alloc_ctx_trackerE, ptr noundef inttoptr (i64 -1 to ptr))
  %14 = call noalias noundef nonnull ptr @_Znwm(i64 noundef 64) #15
  invoke void @_ZN4base11trace_event24AllocationContextTrackerC1Ev(ptr noundef nonnull align 8 dereferenceable(60) %14)
          to label %15 unwind label %17

15:                                               ; preds = %13
  store ptr %14, ptr %2, align 8, !tbaa !3
  %16 = load ptr, ptr %2, align 8, !tbaa !3
  call void @_ZN4base18ThreadLocalStorage10StaticSlot3SetEPv(ptr noundef nonnull align 4 dereferenceable(8) @_ZN4base11trace_event12_GLOBAL__N_123g_tls_alloc_ctx_trackerE, ptr noundef %16)
  br label %21

17:                                               ; preds = %13
  %18 = landingpad { ptr, i32 }
          cleanup
  %19 = extractvalue { ptr, i32 } %18, 0
  store ptr %19, ptr %4, align 8
  %20 = extractvalue { ptr, i32 } %18, 1
  store i32 %20, ptr %5, align 4
  call void @_ZdlPv(ptr noundef %14) #16
  call void @llvm.lifetime.end.p0(i64 8, ptr %2) #14
  br label %25

21:                                               ; preds = %15, %10
  %22 = load ptr, ptr %2, align 8, !tbaa !3
  store ptr %22, ptr %1, align 8
  store i32 1, ptr %3, align 4
  br label %23

23:                                               ; preds = %21, %9
  call void @llvm.lifetime.end.p0(i64 8, ptr %2) #14
  %24 = load ptr, ptr %1, align 8
  ret ptr %24

25:                                               ; preds = %17
  %26 = load ptr, ptr %4, align 8
  %27 = load i32, ptr %5, align 4
  %28 = insertvalue { ptr, i32 } poison, ptr %26, 0
  %29 = insertvalue { ptr, i32 } %28, i32 %27, 1
  resume { ptr, i32 } %29
}