; Function Attrs: mustprogress uwtable
define noundef ptr @_ZN4base11trace_event24AllocationContextTracker27GetInstanceForCurrentThreadEv() local_unnamed_addr #0 align 2 personality ptr @__gxx_personality_v0 {
  %1 = tail call noundef ptr @_ZNK4base18ThreadLocalStorage10StaticSlot3GetEv(ptr noundef nonnull align 4 dereferenceable(8) @_ZN4base11trace_event12_GLOBAL__N_123g_tls_alloc_ctx_trackerE)
  %magicptr = ptrtoint ptr %1 to i64
  switch i64 %magicptr, label %7 [
    i64 -1, label %8
    i64 0, label %2
  ]

2:                                                ; preds = %0
  tail call void @_ZN4base18ThreadLocalStorage10StaticSlot3SetEPv(ptr noundef nonnull align 4 dereferenceable(8) @_ZN4base11trace_event12_GLOBAL__N_123g_tls_alloc_ctx_trackerE, ptr noundef nonnull inttoptr (i64 -1 to ptr))
  %3 = tail call noalias noundef nonnull dereferenceable(64) ptr @_Znwm(i64 noundef 64) #14
  invoke void @_ZN4base11trace_event24AllocationContextTrackerC1Ev(ptr noundef nonnull align 8 dereferenceable(60) %3)
          to label %4 unwind label %5

4:                                                ; preds = %2
  tail call void @_ZN4base18ThreadLocalStorage10StaticSlot3SetEPv(ptr noundef nonnull align 4 dereferenceable(8) @_ZN4base11trace_event12_GLOBAL__N_123g_tls_alloc_ctx_trackerE, ptr noundef nonnull %3)
  br label %8

5:                                                ; preds = %2
  %6 = landingpad { ptr, i32 }
          cleanup
  tail call void @_ZdlPv(ptr noundef nonnull %3) #15
  resume { ptr, i32 } %6

7:                                                ; preds = %0
  br label %8

8:                                                ; preds = %4, %0, %7
  %.0 = phi ptr [ null, %0 ], [ %3, %4 ], [ %1, %7 ]
  ret ptr %.0
}